GAS LISTING /tmp/ccs530BK.s 			page 1


   1               		.file	"PwmSon.cpp"
   2               	__SP_H__ = 0x3e
   3               	__SP_L__ = 0x3d
   4               	__SREG__ = 0x3f
   5               	__tmp_reg__ = 0
   6               	__zero_reg__ = 1
   7               		.stabs	"/home/AltairHandor/Documents/inf1995-4754/projet/",100,0,4,.Ltext0
   8               		.stabs	"PwmSon.cpp",100,0,4,.Ltext0
   9               		.text
  10               	.Ltext0:
  11               		.stabs	"gcc2_compiled.",60,0,0,0
  12               		.stabs	"__uint24:t(0,1)=@s24;r(0,1);0;077777777;",128,0,0,0
  13               		.stabs	"__int24:t(0,2)=@s24;r(0,2);040000000;037777777;",128,0,0,0
  14               		.stabs	"__builtin_va_list:t(0,3)=*(0,4)=(0,4)",128,0,0,0
  15               		.stabs	"complex long double:t(0,5)=R3;8;0;",128,0,0,0
  16               		.stabs	"complex double:t(0,6)=R3;8;0;",128,0,0,0
  17               		.stabs	"complex float:t(0,7)=R3;8;0;",128,0,0,0
  18               		.stabs	"complex int:t(0,8)=s4real:(0,9)=r(0,9);-32768;32767;,0,16;imag:(0,9),16,16;;",128,0,0,0
  19               		.stabs	"long long unsigned int:t(0,10)=@s64;r(0,10);0;01777777777777777777777;",128,0,0,0
  20               		.stabs	"long unsigned int:t(0,11)=@s32;r(0,11);0;037777777777;",128,0,0,0
  21               		.stabs	"unsigned int:t(0,12)=r(0,12);0;0177777;",128,0,0,0
  22               		.stabs	"unsigned char:t(0,13)=@s8;r(0,13);0;255;",128,0,0,0
  23               		.stabs	"long long int:t(0,14)=@s64;r(0,14);01000000000000000000000;0777777777777777777777;",128,0,
  24               		.stabs	"long int:t(0,15)=@s32;r(0,15);020000000000;017777777777;",128,0,0,0
  25               		.stabs	"int:t(0,9)",128,0,0,0
  26               		.stabs	"signed char:t(0,16)=@s8;r(0,16);-128;127;",128,0,0,0
  27               		.stabs	"char:t(0,17)=@s8;r(0,17);0;255;",128,0,0,0
  28               		.stabs	"signed:t(0,9)",128,0,0,0
  29               		.stabs	"unsigned long:t(0,11)",128,0,0,0
  30               		.stabs	"long long unsigned:t(0,10)",128,0,0,0
  31               		.stabs	"short int:t(0,18)=r(0,18);-32768;32767;",128,0,0,0
  32               		.stabs	"short unsigned int:t(0,19)=r(0,19);0;0177777;",128,0,0,0
  33               		.stabs	"unsigned short:t(0,19)",128,0,0,0
  34               		.stabs	"float:t(0,20)=r(0,9);4;0;",128,0,0,0
  35               		.stabs	"double:t(0,21)=r(0,9);4;0;",128,0,0,0
  36               		.stabs	"long double:t(0,22)=r(0,9);4;0;",128,0,0,0
  37               		.stabs	"short _Fract:t(0,23)=r(0,9);1;0;",128,0,0,0
  38               		.stabs	"long _Fract:t(0,24)=r(0,9);4;0;",128,0,0,0
  39               		.stabs	"long long _Fract:t(0,25)=r(0,9);8;0;",128,0,0,0
  40               		.stabs	"unsigned short _Fract:t(0,26)=r(0,9);1;0;",128,0,0,0
  41               		.stabs	"unsigned _Fract:t(0,27)=r(0,9);2;0;",128,0,0,0
  42               		.stabs	"unsigned long _Fract:t(0,28)=r(0,9);4;0;",128,0,0,0
  43               		.stabs	"unsigned long long _Fract:t(0,29)=r(0,9);8;0;",128,0,0,0
  44               		.stabs	"_Sat short _Fract:t(0,30)=r(0,9);1;0;",128,0,0,0
  45               		.stabs	"_Sat _Fract:t(0,31)=r(0,9);2;0;",128,0,0,0
  46               		.stabs	"_Sat long _Fract:t(0,32)=r(0,9);4;0;",128,0,0,0
  47               		.stabs	"_Sat long long _Fract:t(0,33)=r(0,9);8;0;",128,0,0,0
  48               		.stabs	"_Sat unsigned short _Fract:t(0,34)=r(0,9);1;0;",128,0,0,0
  49               		.stabs	"_Sat unsigned _Fract:t(0,35)=r(0,9);2;0;",128,0,0,0
  50               		.stabs	"_Sat unsigned long _Fract:t(0,36)=r(0,9);4;0;",128,0,0,0
  51               		.stabs	"_Sat unsigned long long _Fract:t(0,37)=r(0,9);8;0;",128,0,0,0
  52               		.stabs	"short _Accum:t(0,38)=r(0,9);2;0;",128,0,0,0
  53               		.stabs	"long _Accum:t(0,39)=r(0,9);8;0;",128,0,0,0
  54               		.stabs	"long long _Accum:t(0,40)=r(0,9);8;0;",128,0,0,0
  55               		.stabs	"unsigned short _Accum:t(0,41)=r(0,9);2;0;",128,0,0,0
  56               		.stabs	"unsigned _Accum:t(0,42)=r(0,9);4;0;",128,0,0,0
  57               		.stabs	"unsigned long _Accum:t(0,43)=r(0,9);8;0;",128,0,0,0
GAS LISTING /tmp/ccs530BK.s 			page 2


  58               		.stabs	"unsigned long long _Accum:t(0,44)=r(0,9);8;0;",128,0,0,0
  59               		.stabs	"_Sat short _Accum:t(0,45)=r(0,9);2;0;",128,0,0,0
  60               		.stabs	"_Sat _Accum:t(0,46)=r(0,9);4;0;",128,0,0,0
  61               		.stabs	"_Sat long _Accum:t(0,47)=r(0,9);8;0;",128,0,0,0
  62               		.stabs	"_Sat long long _Accum:t(0,48)=r(0,9);8;0;",128,0,0,0
  63               		.stabs	"_Sat unsigned short _Accum:t(0,49)=r(0,9);2;0;",128,0,0,0
  64               		.stabs	"_Sat unsigned _Accum:t(0,50)=r(0,9);4;0;",128,0,0,0
  65               		.stabs	"_Sat unsigned long _Accum:t(0,51)=r(0,9);8;0;",128,0,0,0
  66               		.stabs	"_Sat unsigned long long _Accum:t(0,52)=r(0,9);8;0;",128,0,0,0
  67               		.stabs	"void:t(0,4)",128,0,0,0
  68               		.stabs	"wchar_t:t(0,53)=r(0,53);-32768;32767;",128,0,0,0
  69               		.stabs	"bool:t(0,54)=@s8;-16;",128,0,0,0
  70               		.stabs	"__vtbl_ptr_type:t(0,55)=*(0,56)=f(0,9)",128,0,0,0
  71               		.stabs	"decltype(nullptr):t(0,57)=(0,57)",128,0,0,0
  72               		.stabs	"int8_t:t(0,58)=(0,16)",128,0,121,0
  73               		.stabs	"uint8_t:t(0,59)=(0,13)",128,0,122,0
  74               		.stabs	"int16_t:t(0,60)=(0,9)",128,0,123,0
  75               		.stabs	"uint16_t:t(0,61)=(0,12)",128,0,124,0
  76               		.stabs	"int32_t:t(0,62)=(0,15)",128,0,125,0
  77               		.stabs	"uint32_t:t(0,63)=(0,11)",128,0,126,0
  78               		.stabs	"int64_t:t(0,64)=(0,14)",128,0,128,0
  79               		.stabs	"uint64_t:t(0,65)=(0,10)",128,0,129,0
  80               		.stabs	"intptr_t:t(0,66)=(0,60)",128,0,142,0
  81               		.stabs	"uintptr_t:t(0,67)=(0,61)",128,0,147,0
  82               		.stabs	"int_least8_t:t(0,68)=(0,58)",128,0,159,0
  83               		.stabs	"uint_least8_t:t(0,69)=(0,59)",128,0,164,0
  84               		.stabs	"int_least16_t:t(0,70)=(0,60)",128,0,169,0
  85               		.stabs	"uint_least16_t:t(0,71)=(0,61)",128,0,174,0
  86               		.stabs	"int_least32_t:t(0,72)=(0,62)",128,0,179,0
  87               		.stabs	"uint_least32_t:t(0,73)=(0,63)",128,0,184,0
  88               		.stabs	"int_least64_t:t(0,74)=(0,64)",128,0,192,0
  89               		.stabs	"uint_least64_t:t(0,75)=(0,65)",128,0,199,0
  90               		.stabs	"int_fast8_t:t(0,76)=(0,58)",128,0,213,0
  91               		.stabs	"uint_fast8_t:t(0,77)=(0,59)",128,0,218,0
  92               		.stabs	"int_fast16_t:t(0,78)=(0,60)",128,0,223,0
  93               		.stabs	"uint_fast16_t:t(0,79)=(0,61)",128,0,228,0
  94               		.stabs	"int_fast32_t:t(0,80)=(0,62)",128,0,233,0
  95               		.stabs	"uint_fast32_t:t(0,81)=(0,63)",128,0,238,0
  96               		.stabs	"int_fast64_t:t(0,82)=(0,64)",128,0,246,0
  97               		.stabs	"uint_fast64_t:t(0,83)=(0,65)",128,0,253,0
  98               		.stabs	"intmax_t:t(0,84)=(0,64)",128,0,273,0
  99               		.stabs	"uintmax_t:t(0,85)=(0,65)",128,0,278,0
 100               		.stabs	"int_farptr_t:t(0,86)=(0,62)",128,0,77,0
 101               		.stabs	"uint_farptr_t:t(0,87)=(0,63)",128,0,81,0
 102               		.stabs	"._0:Tt(0,88)=s3low:(0,13),0,8;high:(0,13),8,8;extended:(0,13),16,8;;",128,0,240,0
 103               		.stabs	"__fuse_t:t(0,88)",128,0,244,0
 104               		.stabs	"PwmSon:Tt(0,89)=s1__base_ctor ::(0,90)=#(0,89),(0,4),(0,91)=*(0,89),(0,4);:_ZN6PwmSonC2Ev;
 105               		.stabs	"_ZN6PwmSonC2Ev:F(0,4)",36,0,7,_ZN6PwmSonC2Ev
 106               		.stabs	"this:P(0,93)=k(0,91)",64,0,7,24
 107               	.global	_ZN6PwmSonC2Ev
 108               		.type	_ZN6PwmSonC2Ev, @function
 109               	_ZN6PwmSonC2Ev:
 110               		.stabd	46,0,0
   1:PwmSon.cpp    **** #include <avr/io.h>
   2:PwmSon.cpp    **** #define F_CPU 8000000
   3:PwmSon.cpp    **** #include <util/delay.h>
   4:PwmSon.cpp    **** #include "PwmSon.h"
GAS LISTING /tmp/ccs530BK.s 			page 3


   5:PwmSon.cpp    **** 
   6:PwmSon.cpp    **** 
   7:PwmSon.cpp    **** PwmSon::PwmSon()
 111               		.stabn	68,0,7,.LM0-.LFBB1
 112               	.LM0:
 113               	.LFBB1:
 114               	/* prologue: function */
 115               	/* frame size = 0 */
 116               	/* stack size = 0 */
 117               	.L__stack_usage = 0
 118 0000 0895      		ret
 119               		.size	_ZN6PwmSonC2Ev, .-_ZN6PwmSonC2Ev
 120               	.Lscope1:
 121               		.stabs	"",36,0,0,.Lscope1-.LFBB1
 122               		.stabd	78,0,0
 123               	.global	_ZN6PwmSonC1Ev
 124               		.set	_ZN6PwmSonC1Ev,_ZN6PwmSonC2Ev
 125               		.stabs	"_ZN6PwmSonD2Ev:F(0,4)",36,0,14,_ZN6PwmSonD2Ev
 126               		.stabs	"this:P(0,93)",64,0,14,24
 127               	.global	_ZN6PwmSonD2Ev
 128               		.type	_ZN6PwmSonD2Ev, @function
 129               	_ZN6PwmSonD2Ev:
 130               		.stabd	46,0,0
   8:PwmSon.cpp    **** {
   9:PwmSon.cpp    **** 	
  10:PwmSon.cpp    **** }
  11:PwmSon.cpp    **** 
  12:PwmSon.cpp    **** 
  13:PwmSon.cpp    **** 
  14:PwmSon.cpp    **** PwmSon::~PwmSon()
 131               		.stabn	68,0,14,.LM1-.LFBB2
 132               	.LM1:
 133               	.LFBB2:
 134               	/* prologue: function */
 135               	/* frame size = 0 */
 136               	/* stack size = 0 */
 137               	.L__stack_usage = 0
 138 0002 0895      		ret
 139               		.size	_ZN6PwmSonD2Ev, .-_ZN6PwmSonD2Ev
 140               	.Lscope2:
 141               		.stabs	"",36,0,0,.Lscope2-.LFBB2
 142               		.stabd	78,0,0
 143               	.global	_ZN6PwmSonD1Ev
 144               		.set	_ZN6PwmSonD1Ev,_ZN6PwmSonD2Ev
 145               		.stabs	"_ZN6PwmSon16ajustementPwmSonEv:F(0,4)",36,0,17,_ZN6PwmSon16ajustementPwmSonEv
 146               		.stabs	"this:P(0,93)",64,0,17,24
 147               	.global	_ZN6PwmSon16ajustementPwmSonEv
 148               		.type	_ZN6PwmSon16ajustementPwmSonEv, @function
 149               	_ZN6PwmSon16ajustementPwmSonEv:
 150               		.stabd	46,0,0
  15:PwmSon.cpp    **** {}
  16:PwmSon.cpp    **** 
  17:PwmSon.cpp    **** void PwmSon::ajustementPwmSon()
  18:PwmSon.cpp    **** {
 151               		.stabn	68,0,18,.LM2-.LFBB3
 152               	.LM2:
 153               	.LFBB3:
GAS LISTING /tmp/ccs530BK.s 			page 4


 154               	/* prologue: function */
 155               	/* frame size = 0 */
 156               	/* stack size = 0 */
 157               	.L__stack_usage = 0
  19:PwmSon.cpp    ****     /*TCCR0A |= (1<<WGM01) | (1<<COM0A0);
  20:PwmSon.cpp    **** 
  21:PwmSon.cpp    ****     TCCR0B |= (1<<CS02) ;*/
  22:PwmSon.cpp    ****     
  23:PwmSon.cpp    ****     	TCCR0A = (1 << WGM01) | (1 << COM0A0);
 158               		.stabn	68,0,23,.LM3-.LFBB3
 159               	.LM3:
 160 0004 82E4      		ldi r24,lo8(66)
 161 0006 84BD      		out 0x24,r24
  24:PwmSon.cpp    **** 	
  25:PwmSon.cpp    **** 	TCCR0B = 0x04 ;
 162               		.stabn	68,0,25,.LM4-.LFBB3
 163               	.LM4:
 164 0008 84E0      		ldi r24,lo8(4)
 165 000a 85BD      		out 0x25,r24
  26:PwmSon.cpp    **** 		
  27:PwmSon.cpp    **** 	OCR0A = 100;
 166               		.stabn	68,0,27,.LM5-.LFBB3
 167               	.LM5:
 168 000c 84E6      		ldi r24,lo8(100)
 169 000e 87BD      		out 0x27,r24
 170 0010 0895      		ret
 171               		.size	_ZN6PwmSon16ajustementPwmSonEv, .-_ZN6PwmSon16ajustementPwmSonEv
 172               	.Lscope3:
 173               		.stabs	"",36,0,0,.Lscope3-.LFBB3
 174               		.stabd	78,0,0
 175               	.global	__floatunsisf
 176               	.global	__fixunssfsi
 177               		.stabs	"_ZN6PwmSon8faireSonEj:F(0,4)",36,0,34,_ZN6PwmSon8faireSonEj
 178               		.stabs	"this:P(0,93)",64,0,34,24
 179               		.stabs	"pwm:P(0,12)",64,0,34,22
 180               	.global	_ZN6PwmSon8faireSonEj
 181               		.type	_ZN6PwmSon8faireSonEj, @function
 182               	_ZN6PwmSon8faireSonEj:
 183               		.stabd	46,0,0
  28:PwmSon.cpp    **** 	
  29:PwmSon.cpp    **** 	//= 15625.0/(110.0 * pow(2, (note-45)/12.0));
  30:PwmSon.cpp    **** 
  31:PwmSon.cpp    **** }
  32:PwmSon.cpp    **** 
  33:PwmSon.cpp    **** 
  34:PwmSon.cpp    **** void PwmSon::faireSon(unsigned int pwm)
  35:PwmSon.cpp    **** {
 184               		.stabn	68,0,35,.LM6-.LFBB4
 185               	.LM6:
 186               	.LFBB4:
 187               	/* prologue: function */
 188               	/* frame size = 0 */
 189               	/* stack size = 0 */
 190               	.L__stack_usage = 0
  36:PwmSon.cpp    **** 	OCR0A = floor((pwm-45)*255/36);
 191               		.stabn	68,0,36,.LM7-.LFBB4
 192               	.LM7:
GAS LISTING /tmp/ccs530BK.s 			page 5


 193 0012 2FEF      		ldi r18,lo8(-1)
 194 0014 269F      		mul r18,r22
 195 0016 C001      		movw r24,r0
 196 0018 279F      		mul r18,r23
 197 001a 900D      		add r25,r0
 198 001c 1124      		clr __zero_reg__
 199 001e 835D      		subi r24,-45
 200 0020 9C42      		sbci r25,44
 201 0022 64E2      		ldi r22,lo8(36)
 202 0024 70E0      		ldi r23,0
 203 0026 0E94 0000 		call __udivmodhi4
 204 002a 80E0      		ldi r24,0
 205 002c 90E0      		ldi r25,0
 206 002e 0E94 0000 		call __floatunsisf
 207 0032 0E94 0000 		call floor
 208 0036 0E94 0000 		call __fixunssfsi
 209 003a 67BD      		out 0x27,r22
 210 003c 0895      		ret
 211               		.size	_ZN6PwmSon8faireSonEj, .-_ZN6PwmSon8faireSonEj
 212               	.Lscope4:
 213               		.stabs	"",36,0,0,.Lscope4-.LFBB4
 214               		.stabd	78,0,0
 215               		.stabs	"_ZN6PwmSon7silenceEj:F(0,4)",36,0,39,_ZN6PwmSon7silenceEj
 216               		.stabs	"this:P(0,93)",64,0,39,24
 217               		.stabs	"pwm:P(0,12)",64,0,39,22
 218               	.global	_ZN6PwmSon7silenceEj
 219               		.type	_ZN6PwmSon7silenceEj, @function
 220               	_ZN6PwmSon7silenceEj:
 221               		.stabd	46,0,0
  37:PwmSon.cpp    **** }
  38:PwmSon.cpp    **** 
  39:PwmSon.cpp    **** void PwmSon::silence(unsigned int pwm)
  40:PwmSon.cpp    **** {
 222               		.stabn	68,0,40,.LM8-.LFBB5
 223               	.LM8:
 224               	.LFBB5:
 225               	/* prologue: function */
 226               	/* frame size = 0 */
 227               	/* stack size = 0 */
 228               	.L__stack_usage = 0
  41:PwmSon.cpp    **** 	TCCR0B &= 0x00;
 229               		.stabn	68,0,41,.LM9-.LFBB5
 230               	.LM9:
 231 003e 85B5      		in r24,0x25
 232 0040 15BC      		out 0x25,__zero_reg__
 233 0042 0895      		ret
 234               		.size	_ZN6PwmSon7silenceEj, .-_ZN6PwmSon7silenceEj
 235               	.Lscope5:
 236               		.stabs	"",36,0,0,.Lscope5-.LFBB5
 237               		.stabd	78,0,0
 238               		.stabs	"",100,0,0,.Letext0
 239               	.Letext0:
 240               		.ident	"GCC: (Fedora 4.9.3-1.fc23) 4.9.3"
GAS LISTING /tmp/ccs530BK.s 			page 6


DEFINED SYMBOLS
                            *ABS*:0000000000000000 PwmSon.cpp
     /tmp/ccs530BK.s:2      *ABS*:000000000000003e __SP_H__
     /tmp/ccs530BK.s:3      *ABS*:000000000000003d __SP_L__
     /tmp/ccs530BK.s:4      *ABS*:000000000000003f __SREG__
     /tmp/ccs530BK.s:5      *ABS*:0000000000000000 __tmp_reg__
     /tmp/ccs530BK.s:6      *ABS*:0000000000000001 __zero_reg__
     /tmp/ccs530BK.s:109    .text:0000000000000000 _ZN6PwmSonC2Ev
     /tmp/ccs530BK.s:109    .text:0000000000000000 _ZN6PwmSonC1Ev
     /tmp/ccs530BK.s:129    .text:0000000000000002 _ZN6PwmSonD2Ev
     /tmp/ccs530BK.s:129    .text:0000000000000002 _ZN6PwmSonD1Ev
     /tmp/ccs530BK.s:149    .text:0000000000000004 _ZN6PwmSon16ajustementPwmSonEv
     /tmp/ccs530BK.s:182    .text:0000000000000012 _ZN6PwmSon8faireSonEj
     /tmp/ccs530BK.s:220    .text:000000000000003e _ZN6PwmSon7silenceEj

UNDEFINED SYMBOLS
__floatunsisf
__fixunssfsi
__udivmodhi4
floor
