GAS LISTING /tmp/ccQsua05.s 			page 1


   1               		.file	"td4_1.cpp"
   2               	__SP_H__ = 0x3e
   3               	__SP_L__ = 0x3d
   4               	__SREG__ = 0x3f
   5               	__tmp_reg__ = 0
   6               	__zero_reg__ = 1
   7               		.stabs	"/usagers/olstob/inf1995-47/inf1995-47/tp/tp4/",100,0,4,.Ltext0
   8               		.stabs	"td4_1.cpp",100,0,4,.Ltext0
   9               		.text
  10               	.Ltext0:
  11               		.stabs	"gcc2_compiled.",60,0,0,0
  12               		.stabs	"__uint24:t(0,1)=@s24;r(0,1);0;077777777;",128,0,0,0
  13               		.stabs	"__int24:t(0,2)=@s24;r(0,2);040000000;037777777;",128,0,0,0
  14               		.stabs	"__builtin_va_list:t(0,3)=*(0,4)=(0,4)",128,0,0,0
  15               		.stabs	"complex long double:t(0,5)=R3;8;0;",128,0,0,0
  16               		.stabs	"complex double:t(0,6)=R3;8;0;",128,0,0,0
  17               		.stabs	"complex float:t(0,7)=R3;8;0;",128,0,0,0
  18               		.stabs	"complex int:t(0,8)=s4real:(0,9)=r(0,9);-32768;32767;,0,16;imag:(0,9),16,16;;",128,0,0,0
  19               		.stabs	"long long unsigned int:t(0,10)=@s64;r(0,10);0;01777777777777777777777;",128,0,0,0
  20               		.stabs	"long unsigned int:t(0,11)=@s32;r(0,11);0;037777777777;",128,0,0,0
  21               		.stabs	"unsigned int:t(0,12)=r(0,12);0;0177777;",128,0,0,0
  22               		.stabs	"unsigned char:t(0,13)=@s8;r(0,13);0;255;",128,0,0,0
  23               		.stabs	"long long int:t(0,14)=@s64;r(0,14);01000000000000000000000;0777777777777777777777;",128,0,
  24               		.stabs	"long int:t(0,15)=@s32;r(0,15);020000000000;017777777777;",128,0,0,0
  25               		.stabs	"int:t(0,9)",128,0,0,0
  26               		.stabs	"signed char:t(0,16)=@s8;r(0,16);-128;127;",128,0,0,0
  27               		.stabs	"char:t(0,17)=@s8;r(0,17);0;255;",128,0,0,0
  28               		.stabs	"signed:t(0,9)",128,0,0,0
  29               		.stabs	"unsigned long:t(0,11)",128,0,0,0
  30               		.stabs	"long long unsigned:t(0,10)",128,0,0,0
  31               		.stabs	"short int:t(0,18)=r(0,18);-32768;32767;",128,0,0,0
  32               		.stabs	"short unsigned int:t(0,19)=r(0,19);0;0177777;",128,0,0,0
  33               		.stabs	"unsigned short:t(0,19)",128,0,0,0
  34               		.stabs	"float:t(0,20)=r(0,9);4;0;",128,0,0,0
  35               		.stabs	"double:t(0,21)=r(0,9);4;0;",128,0,0,0
  36               		.stabs	"long double:t(0,22)=r(0,9);4;0;",128,0,0,0
  37               		.stabs	"short _Fract:t(0,23)=r(0,9);1;0;",128,0,0,0
  38               		.stabs	"long _Fract:t(0,24)=r(0,9);4;0;",128,0,0,0
  39               		.stabs	"long long _Fract:t(0,25)=r(0,9);8;0;",128,0,0,0
  40               		.stabs	"unsigned short _Fract:t(0,26)=r(0,9);1;0;",128,0,0,0
  41               		.stabs	"unsigned _Fract:t(0,27)=r(0,9);2;0;",128,0,0,0
  42               		.stabs	"unsigned long _Fract:t(0,28)=r(0,9);4;0;",128,0,0,0
  43               		.stabs	"unsigned long long _Fract:t(0,29)=r(0,9);8;0;",128,0,0,0
  44               		.stabs	"_Sat short _Fract:t(0,30)=r(0,9);1;0;",128,0,0,0
  45               		.stabs	"_Sat _Fract:t(0,31)=r(0,9);2;0;",128,0,0,0
  46               		.stabs	"_Sat long _Fract:t(0,32)=r(0,9);4;0;",128,0,0,0
  47               		.stabs	"_Sat long long _Fract:t(0,33)=r(0,9);8;0;",128,0,0,0
  48               		.stabs	"_Sat unsigned short _Fract:t(0,34)=r(0,9);1;0;",128,0,0,0
  49               		.stabs	"_Sat unsigned _Fract:t(0,35)=r(0,9);2;0;",128,0,0,0
  50               		.stabs	"_Sat unsigned long _Fract:t(0,36)=r(0,9);4;0;",128,0,0,0
  51               		.stabs	"_Sat unsigned long long _Fract:t(0,37)=r(0,9);8;0;",128,0,0,0
  52               		.stabs	"short _Accum:t(0,38)=r(0,9);2;0;",128,0,0,0
  53               		.stabs	"long _Accum:t(0,39)=r(0,9);8;0;",128,0,0,0
  54               		.stabs	"long long _Accum:t(0,40)=r(0,9);8;0;",128,0,0,0
  55               		.stabs	"unsigned short _Accum:t(0,41)=r(0,9);2;0;",128,0,0,0
  56               		.stabs	"unsigned _Accum:t(0,42)=r(0,9);4;0;",128,0,0,0
  57               		.stabs	"unsigned long _Accum:t(0,43)=r(0,9);8;0;",128,0,0,0
GAS LISTING /tmp/ccQsua05.s 			page 2


  58               		.stabs	"unsigned long long _Accum:t(0,44)=r(0,9);8;0;",128,0,0,0
  59               		.stabs	"_Sat short _Accum:t(0,45)=r(0,9);2;0;",128,0,0,0
  60               		.stabs	"_Sat _Accum:t(0,46)=r(0,9);4;0;",128,0,0,0
  61               		.stabs	"_Sat long _Accum:t(0,47)=r(0,9);8;0;",128,0,0,0
  62               		.stabs	"_Sat long long _Accum:t(0,48)=r(0,9);8;0;",128,0,0,0
  63               		.stabs	"_Sat unsigned short _Accum:t(0,49)=r(0,9);2;0;",128,0,0,0
  64               		.stabs	"_Sat unsigned _Accum:t(0,50)=r(0,9);4;0;",128,0,0,0
  65               		.stabs	"_Sat unsigned long _Accum:t(0,51)=r(0,9);8;0;",128,0,0,0
  66               		.stabs	"_Sat unsigned long long _Accum:t(0,52)=r(0,9);8;0;",128,0,0,0
  67               		.stabs	"void:t(0,4)",128,0,0,0
  68               		.stabs	"wchar_t:t(0,53)=r(0,53);-32768;32767;",128,0,0,0
  69               		.stabs	"bool:t(0,54)=@s8;-16;",128,0,0,0
  70               		.stabs	"__vtbl_ptr_type:t(0,55)=*(0,56)=f(0,9)",128,0,0,0
  71               		.stabs	"decltype(nullptr):t(0,57)=(0,57)",128,0,0,0
  72               		.stabs	"int8_t:t(0,58)=(0,16)",128,0,121,0
  73               		.stabs	"uint8_t:t(0,59)=(0,13)",128,0,122,0
  74               		.stabs	"int16_t:t(0,60)=(0,9)",128,0,123,0
  75               		.stabs	"uint16_t:t(0,61)=(0,12)",128,0,124,0
  76               		.stabs	"int32_t:t(0,62)=(0,15)",128,0,125,0
  77               		.stabs	"uint32_t:t(0,63)=(0,11)",128,0,126,0
  78               		.stabs	"int64_t:t(0,64)=(0,14)",128,0,128,0
  79               		.stabs	"uint64_t:t(0,65)=(0,10)",128,0,129,0
  80               		.stabs	"intptr_t:t(0,66)=(0,60)",128,0,142,0
  81               		.stabs	"uintptr_t:t(0,67)=(0,61)",128,0,147,0
  82               		.stabs	"int_least8_t:t(0,68)=(0,58)",128,0,159,0
  83               		.stabs	"uint_least8_t:t(0,69)=(0,59)",128,0,164,0
  84               		.stabs	"int_least16_t:t(0,70)=(0,60)",128,0,169,0
  85               		.stabs	"uint_least16_t:t(0,71)=(0,61)",128,0,174,0
  86               		.stabs	"int_least32_t:t(0,72)=(0,62)",128,0,179,0
  87               		.stabs	"uint_least32_t:t(0,73)=(0,63)",128,0,184,0
  88               		.stabs	"int_least64_t:t(0,74)=(0,64)",128,0,192,0
  89               		.stabs	"uint_least64_t:t(0,75)=(0,65)",128,0,199,0
  90               		.stabs	"int_fast8_t:t(0,76)=(0,58)",128,0,213,0
  91               		.stabs	"uint_fast8_t:t(0,77)=(0,59)",128,0,218,0
  92               		.stabs	"int_fast16_t:t(0,78)=(0,60)",128,0,223,0
  93               		.stabs	"uint_fast16_t:t(0,79)=(0,61)",128,0,228,0
  94               		.stabs	"int_fast32_t:t(0,80)=(0,62)",128,0,233,0
  95               		.stabs	"uint_fast32_t:t(0,81)=(0,63)",128,0,238,0
  96               		.stabs	"int_fast64_t:t(0,82)=(0,64)",128,0,246,0
  97               		.stabs	"uint_fast64_t:t(0,83)=(0,65)",128,0,253,0
  98               		.stabs	"intmax_t:t(0,84)=(0,64)",128,0,273,0
  99               		.stabs	"uintmax_t:t(0,85)=(0,65)",128,0,278,0
 100               		.stabs	"int_farptr_t:t(0,86)=(0,62)",128,0,77,0
 101               		.stabs	"uint_farptr_t:t(0,87)=(0,63)",128,0,81,0
 102               		.stabs	"._0:Tt(0,88)=s3low:(0,13),0,8;high:(0,13),8,8;extended:(0,13),16,8;;",128,0,240,0
 103               		.stabs	"__fuse_t:t(0,88)",128,0,244,0
 104               		.section	.text.startup,"ax",@progbits
 105               		.stabs	"main:F(0,9)",36,0,6,main
 106               	.global	main
 107               		.type	main, @function
 108               	main:
 109               		.stabd	46,0,0
   1:td4_1.cpp     **** #define F_CPU 8000000
   2:td4_1.cpp     **** #include <avr/io.h> 
   3:td4_1.cpp     **** #include <util/delay.h>
   4:td4_1.cpp     **** 
   5:td4_1.cpp     **** 
GAS LISTING /tmp/ccQsua05.s 			page 3


   6:td4_1.cpp     **** int main()
   7:td4_1.cpp     **** {
 110               		.stabn	68,0,7,.LM0-.LFBB1
 111               	.LM0:
 112               	.LFBB1:
 113               	/* prologue: function */
 114               	/* frame size = 0 */
 115               	/* stack size = 0 */
 116               	.L__stack_usage = 0
 117               	.LBB61:
   8:td4_1.cpp     **** 	DDRB = 0xFF; // PORT B est en mode sortie
 118               		.stabn	68,0,8,.LM1-.LFBB1
 119               	.LM1:
 120 0000 8FEF      		ldi r24,lo8(-1)
 121 0002 84B9      		out 0x4,r24
 122               	.LBB62:
   9:td4_1.cpp     **** 	
  10:td4_1.cpp     **** 	for (;;){
  11:td4_1.cpp     **** 
  12:td4_1.cpp     ****   
  13:td4_1.cpp     **** 	for (int i1 = 0 ; i1 < 120 ; i1++){
  14:td4_1.cpp     **** 		PORTB = 0x01;
 123               		.stabn	68,0,14,.LM2-.LFBB1
 124               	.LM2:
 125 0004 81E0      		ldi r24,lo8(1)
 126               	.LBE62:
 127               	.LBB65:
  15:td4_1.cpp     **** 		_delay_ms(1000.0/60.0);
  16:td4_1.cpp     **** 	}
  17:td4_1.cpp     **** 	for (int i2 = 0 ; i2 < 120; i2++){
  18:td4_1.cpp     **** 		PORTB = 0xFF;
 128               		.stabn	68,0,18,.LM3-.LFBB1
 129               	.LM3:
 130 0006 9FEF      		ldi r25,lo8(-1)
 131               	.L12:
 132               	.LBE65:
 133               	.LBE61:
   7:td4_1.cpp     **** 	DDRB = 0xFF; // PORT B est en mode sortie
 134               		.stabn	68,0,7,.LM4-.LFBB1
 135               	.LM4:
 136 0008 28E7      		ldi r18,lo8(120)
 137 000a 30E0      		ldi r19,0
 138               	.L2:
 139               	.LBB106:
 140               	.LBB70:
  14:td4_1.cpp     **** 		_delay_ms(1000.0/60.0);
 141               		.stabn	68,0,14,.LM5-.LFBB1
 142               	.LM5:
 143 000c 85B9      		out 0x5,r24
 144               	.LBB63:
 145               	.LBB64:
 146               		.stabs	"/usr/avr/include/util/delay.h",132,0,0,.Ltext1
 147               	.Ltext1:
   1:/usr/avr/include/util/delay.h **** /* Copyright (c) 2002, Marek Michalkiewicz
   2:/usr/avr/include/util/delay.h ****    Copyright (c) 2004,2005,2007 Joerg Wunsch
   3:/usr/avr/include/util/delay.h ****    Copyright (c) 2007  Florin-Viorel Petrov
   4:/usr/avr/include/util/delay.h ****    All rights reserved.
GAS LISTING /tmp/ccQsua05.s 			page 4


   5:/usr/avr/include/util/delay.h **** 
   6:/usr/avr/include/util/delay.h ****    Redistribution and use in source and binary forms, with or without
   7:/usr/avr/include/util/delay.h ****    modification, are permitted provided that the following conditions are met:
   8:/usr/avr/include/util/delay.h **** 
   9:/usr/avr/include/util/delay.h ****    * Redistributions of source code must retain the above copyright
  10:/usr/avr/include/util/delay.h ****      notice, this list of conditions and the following disclaimer.
  11:/usr/avr/include/util/delay.h **** 
  12:/usr/avr/include/util/delay.h ****    * Redistributions in binary form must reproduce the above copyright
  13:/usr/avr/include/util/delay.h ****      notice, this list of conditions and the following disclaimer in
  14:/usr/avr/include/util/delay.h ****      the documentation and/or other materials provided with the
  15:/usr/avr/include/util/delay.h ****      distribution.
  16:/usr/avr/include/util/delay.h **** 
  17:/usr/avr/include/util/delay.h ****    * Neither the name of the copyright holders nor the names of
  18:/usr/avr/include/util/delay.h ****      contributors may be used to endorse or promote products derived
  19:/usr/avr/include/util/delay.h ****      from this software without specific prior written permission.
  20:/usr/avr/include/util/delay.h **** 
  21:/usr/avr/include/util/delay.h ****   THIS SOFTWARE IS PROVIDED BY THE COPYRIGHT HOLDERS AND CONTRIBUTORS "AS IS"
  22:/usr/avr/include/util/delay.h ****   AND ANY EXPRESS OR IMPLIED WARRANTIES, INCLUDING, BUT NOT LIMITED TO, THE
  23:/usr/avr/include/util/delay.h ****   IMPLIED WARRANTIES OF MERCHANTABILITY AND FITNESS FOR A PARTICULAR PURPOSE
  24:/usr/avr/include/util/delay.h ****   ARE DISCLAIMED. IN NO EVENT SHALL THE COPYRIGHT OWNER OR CONTRIBUTORS BE
  25:/usr/avr/include/util/delay.h ****   LIABLE FOR ANY DIRECT, INDIRECT, INCIDENTAL, SPECIAL, EXEMPLARY, OR
  26:/usr/avr/include/util/delay.h ****   CONSEQUENTIAL DAMAGES (INCLUDING, BUT NOT LIMITED TO, PROCUREMENT OF
  27:/usr/avr/include/util/delay.h ****   SUBSTITUTE GOODS OR SERVICES; LOSS OF USE, DATA, OR PROFITS; OR BUSINESS
  28:/usr/avr/include/util/delay.h ****   INTERRUPTION) HOWEVER CAUSED AND ON ANY THEORY OF LIABILITY, WHETHER IN
  29:/usr/avr/include/util/delay.h ****   CONTRACT, STRICT LIABILITY, OR TORT (INCLUDING NEGLIGENCE OR OTHERWISE)
  30:/usr/avr/include/util/delay.h ****   ARISING IN ANY WAY OUT OF THE USE OF THIS SOFTWARE, EVEN IF ADVISED OF THE
  31:/usr/avr/include/util/delay.h ****   POSSIBILITY OF SUCH DAMAGE. */
  32:/usr/avr/include/util/delay.h **** 
  33:/usr/avr/include/util/delay.h **** /* $Id: delay.h.in 2251 2011-09-14 08:20:33Z joerg_wunsch $ */
  34:/usr/avr/include/util/delay.h **** 
  35:/usr/avr/include/util/delay.h **** #ifndef _UTIL_DELAY_H_
  36:/usr/avr/include/util/delay.h **** #define _UTIL_DELAY_H_ 1
  37:/usr/avr/include/util/delay.h **** 
  38:/usr/avr/include/util/delay.h **** #ifndef __HAS_DELAY_CYCLES
  39:/usr/avr/include/util/delay.h **** #define __HAS_DELAY_CYCLES 1
  40:/usr/avr/include/util/delay.h **** #endif
  41:/usr/avr/include/util/delay.h **** 
  42:/usr/avr/include/util/delay.h **** #include <inttypes.h>
  43:/usr/avr/include/util/delay.h **** #include <util/delay_basic.h>
  44:/usr/avr/include/util/delay.h **** #include <math.h>
  45:/usr/avr/include/util/delay.h **** 
  46:/usr/avr/include/util/delay.h **** /** \file */
  47:/usr/avr/include/util/delay.h **** /** \defgroup util_delay <util/delay.h>: Convenience functions for busy-wait delay loops
  48:/usr/avr/include/util/delay.h ****     \code
  49:/usr/avr/include/util/delay.h ****     #define F_CPU 1000000UL  // 1 MHz
  50:/usr/avr/include/util/delay.h ****     //#define F_CPU 14.7456E6
  51:/usr/avr/include/util/delay.h ****     #include <util/delay.h>
  52:/usr/avr/include/util/delay.h ****     \endcode
  53:/usr/avr/include/util/delay.h **** 
  54:/usr/avr/include/util/delay.h ****     \note As an alternative method, it is possible to pass the
  55:/usr/avr/include/util/delay.h ****     F_CPU macro down to the compiler from the Makefile.
  56:/usr/avr/include/util/delay.h ****     Obviously, in that case, no \c \#define statement should be
  57:/usr/avr/include/util/delay.h ****     used.
  58:/usr/avr/include/util/delay.h **** 
  59:/usr/avr/include/util/delay.h ****     The functions in this header file are wrappers around the basic
  60:/usr/avr/include/util/delay.h ****     busy-wait functions from <util/delay_basic.h>.  They are meant as
  61:/usr/avr/include/util/delay.h ****     convenience functions where actual time values can be specified
GAS LISTING /tmp/ccQsua05.s 			page 5


  62:/usr/avr/include/util/delay.h ****     rather than a number of cycles to wait for.  The idea behind is
  63:/usr/avr/include/util/delay.h ****     that compile-time constant expressions will be eliminated by
  64:/usr/avr/include/util/delay.h ****     compiler optimization so floating-point expressions can be used
  65:/usr/avr/include/util/delay.h ****     to calculate the number of delay cycles needed based on the CPU
  66:/usr/avr/include/util/delay.h ****     frequency passed by the macro F_CPU.
  67:/usr/avr/include/util/delay.h **** 
  68:/usr/avr/include/util/delay.h ****     \note In order for these functions to work as intended, compiler
  69:/usr/avr/include/util/delay.h ****     optimizations <em>must</em> be enabled, and the delay time
  70:/usr/avr/include/util/delay.h ****     <em>must</em> be an expression that is a known constant at
  71:/usr/avr/include/util/delay.h ****     compile-time.  If these requirements are not met, the resulting
  72:/usr/avr/include/util/delay.h ****     delay will be much longer (and basically unpredictable), and
  73:/usr/avr/include/util/delay.h ****     applications that otherwise do not use floating-point calculations
  74:/usr/avr/include/util/delay.h ****     will experience severe code bloat by the floating-point library
  75:/usr/avr/include/util/delay.h ****     routines linked into the application.
  76:/usr/avr/include/util/delay.h **** 
  77:/usr/avr/include/util/delay.h ****     The functions available allow the specification of microsecond, and
  78:/usr/avr/include/util/delay.h ****     millisecond delays directly, using the application-supplied macro
  79:/usr/avr/include/util/delay.h ****     F_CPU as the CPU clock frequency (in Hertz).
  80:/usr/avr/include/util/delay.h **** 
  81:/usr/avr/include/util/delay.h **** */
  82:/usr/avr/include/util/delay.h **** 
  83:/usr/avr/include/util/delay.h **** #if !defined(__DOXYGEN__)
  84:/usr/avr/include/util/delay.h **** static inline void _delay_us(double __us) __attribute__((always_inline));
  85:/usr/avr/include/util/delay.h **** static inline void _delay_ms(double __ms) __attribute__((always_inline));
  86:/usr/avr/include/util/delay.h **** #endif
  87:/usr/avr/include/util/delay.h **** 
  88:/usr/avr/include/util/delay.h **** #ifndef F_CPU
  89:/usr/avr/include/util/delay.h **** /* prevent compiler error by supplying a default */
  90:/usr/avr/include/util/delay.h **** # warning "F_CPU not defined for <util/delay.h>"
  91:/usr/avr/include/util/delay.h **** # define F_CPU 1000000UL
  92:/usr/avr/include/util/delay.h **** #endif
  93:/usr/avr/include/util/delay.h **** 
  94:/usr/avr/include/util/delay.h **** #ifndef __OPTIMIZE__
  95:/usr/avr/include/util/delay.h **** # warning "Compiler optimizations disabled; functions from <util/delay.h> won't work as designed"
  96:/usr/avr/include/util/delay.h **** #endif
  97:/usr/avr/include/util/delay.h **** 
  98:/usr/avr/include/util/delay.h **** #if __HAS_DELAY_CYCLES && defined(__OPTIMIZE__) && \
  99:/usr/avr/include/util/delay.h ****   !defined(__DELAY_BACKWARD_COMPATIBLE__) &&	   \
 100:/usr/avr/include/util/delay.h ****   __STDC_HOSTED__
 101:/usr/avr/include/util/delay.h **** #  include <math.h>
 102:/usr/avr/include/util/delay.h **** #endif
 103:/usr/avr/include/util/delay.h **** 
 104:/usr/avr/include/util/delay.h **** /**
 105:/usr/avr/include/util/delay.h ****    \ingroup util_delay
 106:/usr/avr/include/util/delay.h **** 
 107:/usr/avr/include/util/delay.h ****    Perform a delay of \c __ms milliseconds, using _delay_loop_2().
 108:/usr/avr/include/util/delay.h **** 
 109:/usr/avr/include/util/delay.h ****    The macro F_CPU is supposed to be defined to a
 110:/usr/avr/include/util/delay.h ****    constant defining the CPU clock frequency (in Hertz).
 111:/usr/avr/include/util/delay.h **** 
 112:/usr/avr/include/util/delay.h ****    The maximal possible delay is 262.14 ms / F_CPU in MHz.
 113:/usr/avr/include/util/delay.h **** 
 114:/usr/avr/include/util/delay.h ****    When the user request delay which exceed the maximum possible one,
 115:/usr/avr/include/util/delay.h ****    _delay_ms() provides a decreased resolution functionality. In this
 116:/usr/avr/include/util/delay.h ****    mode _delay_ms() will work with a resolution of 1/10 ms, providing
 117:/usr/avr/include/util/delay.h ****    delays up to 6.5535 seconds (independent from CPU frequency).  The
 118:/usr/avr/include/util/delay.h ****    user will not be informed about decreased resolution.
GAS LISTING /tmp/ccQsua05.s 			page 6


 119:/usr/avr/include/util/delay.h **** 
 120:/usr/avr/include/util/delay.h ****    If the avr-gcc toolchain has __builtin_avr_delay_cycles(unsigned long)
 121:/usr/avr/include/util/delay.h ****    support, maximal possible delay is 4294967.295 ms/ F_CPU in MHz. For
 122:/usr/avr/include/util/delay.h ****    values greater than the maximal possible delay, overflows results in
 123:/usr/avr/include/util/delay.h ****    no delay i.e., 0ms.
 124:/usr/avr/include/util/delay.h **** 
 125:/usr/avr/include/util/delay.h ****    Conversion of __us into clock cycles may not always result in integer.
 126:/usr/avr/include/util/delay.h ****    By default, the clock cycles rounded up to next integer. This ensures that
 127:/usr/avr/include/util/delay.h ****    the user gets atleast __us microseconds of delay.
 128:/usr/avr/include/util/delay.h **** 
 129:/usr/avr/include/util/delay.h ****    Alternatively, user can define __DELAY_ROUND_DOWN__ and __DELAY_ROUND_CLOSEST__
 130:/usr/avr/include/util/delay.h ****    to round down and round to closest integer.
 131:/usr/avr/include/util/delay.h **** 
 132:/usr/avr/include/util/delay.h ****    Note: The new implementation of _delay_ms(double __ms) with 
 133:/usr/avr/include/util/delay.h ****     __builtin_avr_delay_cycles(unsigned long) support is not backward compatible. 
 134:/usr/avr/include/util/delay.h ****    User can define __DELAY_BACKWARD_COMPATIBLE__ to get a backward compatible delay.
 135:/usr/avr/include/util/delay.h ****    Also, the backward compatible
 136:/usr/avr/include/util/delay.h ****    algorithm will be chosen if the code is compiled in a <em>freestanding
 137:/usr/avr/include/util/delay.h ****    environment</em> (GCC option \c -ffreestanding), as the math functions
 138:/usr/avr/include/util/delay.h ****    required for rounding are not available to the compiler then.
 139:/usr/avr/include/util/delay.h **** 
 140:/usr/avr/include/util/delay.h ****  */
 141:/usr/avr/include/util/delay.h **** void
 142:/usr/avr/include/util/delay.h **** _delay_ms(double __ms)
 143:/usr/avr/include/util/delay.h **** {
 144:/usr/avr/include/util/delay.h **** 	uint16_t __ticks;
 145:/usr/avr/include/util/delay.h **** 	double __tmp ; 
 146:/usr/avr/include/util/delay.h **** #if __HAS_DELAY_CYCLES && defined(__OPTIMIZE__) && \
 147:/usr/avr/include/util/delay.h ****   !defined(__DELAY_BACKWARD_COMPATIBLE__) &&	   \
 148:/usr/avr/include/util/delay.h ****   __STDC_HOSTED__
 149:/usr/avr/include/util/delay.h **** 	uint32_t __ticks_dc;
 150:/usr/avr/include/util/delay.h **** 	extern void __builtin_avr_delay_cycles(unsigned long);
 151:/usr/avr/include/util/delay.h **** 	__tmp = ((F_CPU) / 1e3) * __ms;
 152:/usr/avr/include/util/delay.h **** 
 153:/usr/avr/include/util/delay.h **** 	#if defined(__DELAY_ROUND_DOWN__)
 154:/usr/avr/include/util/delay.h **** 		__ticks_dc = (uint32_t)fabs(__tmp);
 155:/usr/avr/include/util/delay.h **** 
 156:/usr/avr/include/util/delay.h **** 	#elif defined(__DELAY_ROUND_CLOSEST__)
 157:/usr/avr/include/util/delay.h **** 		__ticks_dc = (uint32_t)(fabs(__tmp)+0.5);
 158:/usr/avr/include/util/delay.h **** 
 159:/usr/avr/include/util/delay.h **** 	#else
 160:/usr/avr/include/util/delay.h **** 		//round up by default
 161:/usr/avr/include/util/delay.h **** 		__ticks_dc = (uint32_t)(ceil(fabs(__tmp)));
 162:/usr/avr/include/util/delay.h **** 	#endif
 163:/usr/avr/include/util/delay.h **** 
 164:/usr/avr/include/util/delay.h **** 	__builtin_avr_delay_cycles(__ticks_dc);
 148               		.stabn	68,0,164,.LM6-.LFBB1
 149               	.LM6:
 150 000e E5E3      		ldi r30,lo8(-32203)
 151 0010 F2E8      		ldi r31,hi8(-32203)
 152 0012 3197      		1: sbiw r30,1
 153 0014 01F4      		brne 1b
 154 0016 0000      		nop
 155 0018 2150      		subi r18,1
 156 001a 3109      		sbc r19,__zero_reg__
 157               	.LBE64:
 158               	.LBE63:
GAS LISTING /tmp/ccQsua05.s 			page 7


 159               		.stabs	"td4_1.cpp",132,0,0,.Ltext2
 160               	.Ltext2:
  13:td4_1.cpp     **** 		PORTB = 0x01;
 161               		.stabn	68,0,13,.LM7-.LFBB1
 162               	.LM7:
 163 001c 01F4      		brne .L2
 164 001e 28E7      		ldi r18,lo8(120)
 165 0020 30E0      		ldi r19,0
 166               	.L3:
 167               	.LBE70:
 168               	.LBB71:
 169               		.stabn	68,0,18,.LM8-.LFBB1
 170               	.LM8:
 171 0022 95B9      		out 0x5,r25
 172               	.LBB66:
 173               	.LBB67:
 174               		.stabs	"/usr/avr/include/util/delay.h",132,0,0,.Ltext3
 175               	.Ltext3:
 176               		.stabn	68,0,164,.LM9-.LFBB1
 177               	.LM9:
 178 0024 EDE8      		ldi r30,lo8(8333)
 179 0026 F0E2      		ldi r31,hi8(8333)
 180 0028 3197      		1: sbiw r30,1
 181 002a 01F4      		brne 1b
 182 002c 0000      		nop
 183               	.LBE67:
 184               	.LBE66:
 185               		.stabs	"td4_1.cpp",132,0,0,.Ltext4
 186               	.Ltext4:
  19:td4_1.cpp     **** 		_delay_ms(1000.0/240.0);
  20:td4_1.cpp     **** 		PORTB = 0x01;
 187               		.stabn	68,0,20,.LM10-.LFBB1
 188               	.LM10:
 189 002e 85B9      		out 0x5,r24
 190               	.LBB68:
 191               	.LBB69:
 192               		.stabs	"/usr/avr/include/util/delay.h",132,0,0,.Ltext5
 193               	.Ltext5:
 194               		.stabn	68,0,164,.LM11-.LFBB1
 195               	.LM11:
 196 0030 E7EA      		ldi r30,lo8(24999)
 197 0032 F1E6      		ldi r31,hi8(24999)
 198 0034 3197      		1: sbiw r30,1
 199 0036 01F4      		brne 1b
 200 0038 00C0      		rjmp .
 201 003a 0000      		nop
 202 003c 2150      		subi r18,1
 203 003e 3109      		sbc r19,__zero_reg__
 204               	.LBE69:
 205               	.LBE68:
 206               		.stabs	"td4_1.cpp",132,0,0,.Ltext6
 207               	.Ltext6:
  17:td4_1.cpp     **** 		PORTB = 0xFF;
 208               		.stabn	68,0,17,.LM12-.LFBB1
 209               	.LM12:
 210 0040 01F4      		brne .L3
 211 0042 28E7      		ldi r18,lo8(120)
GAS LISTING /tmp/ccQsua05.s 			page 8


 212 0044 30E0      		ldi r19,0
 213               	.L4:
 214               	.LBE71:
 215               	.LBB72:
  21:td4_1.cpp     **** 		_delay_ms(1000.0/80.0);
  22:td4_1.cpp     **** 	}
  23:td4_1.cpp     **** 	for (int i3 = 0 ; i3 < 120; i3++){
  24:td4_1.cpp     **** 		PORTB = 0xFF;
 216               		.stabn	68,0,24,.LM13-.LFBB1
 217               	.LM13:
 218 0046 95B9      		out 0x5,r25
 219               	.LBB73:
 220               	.LBB74:
 221               		.stabs	"/usr/avr/include/util/delay.h",132,0,0,.Ltext7
 222               	.Ltext7:
 223               		.stabn	68,0,164,.LM14-.LFBB1
 224               	.LM14:
 225 0048 EAE1      		ldi r30,lo8(16666)
 226 004a F1E4      		ldi r31,hi8(16666)
 227 004c 3197      		1: sbiw r30,1
 228 004e 01F4      		brne 1b
 229 0050 00C0      		rjmp .
 230               	.LBE74:
 231               	.LBE73:
 232               		.stabs	"td4_1.cpp",132,0,0,.Ltext8
 233               	.Ltext8:
  25:td4_1.cpp     **** 		_delay_ms(1000.0/120.0);
  26:td4_1.cpp     **** 		PORTB = 0x01;
 234               		.stabn	68,0,26,.LM15-.LFBB1
 235               	.LM15:
 236 0052 85B9      		out 0x5,r24
 237               	.LBB75:
 238               	.LBB76:
 239               		.stabs	"/usr/avr/include/util/delay.h",132,0,0,.Ltext9
 240               	.Ltext9:
 241               		.stabn	68,0,164,.LM16-.LFBB1
 242               	.LM16:
 243 0054 EAE1      		ldi r30,lo8(16666)
 244 0056 F1E4      		ldi r31,hi8(16666)
 245 0058 3197      		1: sbiw r30,1
 246 005a 01F4      		brne 1b
 247 005c 00C0      		rjmp .
 248 005e 2150      		subi r18,1
 249 0060 3109      		sbc r19,__zero_reg__
 250               	.LBE76:
 251               	.LBE75:
 252               		.stabs	"td4_1.cpp",132,0,0,.Ltext10
 253               	.Ltext10:
  23:td4_1.cpp     **** 		PORTB = 0xFF;
 254               		.stabn	68,0,23,.LM17-.LFBB1
 255               	.LM17:
 256 0062 01F4      		brne .L4
 257 0064 28E7      		ldi r18,lo8(120)
 258 0066 30E0      		ldi r19,0
 259               	.L5:
 260               	.LBE72:
 261               	.LBB77:
GAS LISTING /tmp/ccQsua05.s 			page 9


  27:td4_1.cpp     **** 		_delay_ms(1000.0/120.0);
  28:td4_1.cpp     **** 	}
  29:td4_1.cpp     **** 	for (int i4 = 0 ; i4 < 120; i4++){
  30:td4_1.cpp     **** 		PORTB = 0xFF;
 262               		.stabn	68,0,30,.LM18-.LFBB1
 263               	.LM18:
 264 0068 95B9      		out 0x5,r25
 265               	.LBB78:
 266               	.LBB79:
 267               		.stabs	"/usr/avr/include/util/delay.h",132,0,0,.Ltext11
 268               	.Ltext11:
 269               		.stabn	68,0,164,.LM19-.LFBB1
 270               	.LM19:
 271 006a E7EA      		ldi r30,lo8(24999)
 272 006c F1E6      		ldi r31,hi8(24999)
 273 006e 3197      		1: sbiw r30,1
 274 0070 01F4      		brne 1b
 275 0072 00C0      		rjmp .
 276 0074 0000      		nop
 277               	.LBE79:
 278               	.LBE78:
 279               		.stabs	"td4_1.cpp",132,0,0,.Ltext12
 280               	.Ltext12:
  31:td4_1.cpp     **** 		_delay_ms(1000.0/80.0);
  32:td4_1.cpp     **** 		PORTB = 0x01;
 281               		.stabn	68,0,32,.LM20-.LFBB1
 282               	.LM20:
 283 0076 85B9      		out 0x5,r24
 284               	.LBB80:
 285               	.LBB81:
 286               		.stabs	"/usr/avr/include/util/delay.h",132,0,0,.Ltext13
 287               	.Ltext13:
 288               		.stabn	68,0,164,.LM21-.LFBB1
 289               	.LM21:
 290 0078 EDE8      		ldi r30,lo8(8333)
 291 007a F0E2      		ldi r31,hi8(8333)
 292 007c 3197      		1: sbiw r30,1
 293 007e 01F4      		brne 1b
 294 0080 0000      		nop
 295 0082 2150      		subi r18,1
 296 0084 3109      		sbc r19,__zero_reg__
 297               	.LBE81:
 298               	.LBE80:
 299               		.stabs	"td4_1.cpp",132,0,0,.Ltext14
 300               	.Ltext14:
  29:td4_1.cpp     **** 		PORTB = 0xFF;
 301               		.stabn	68,0,29,.LM22-.LFBB1
 302               	.LM22:
 303 0086 01F4      		brne .L5
 304 0088 28E7      		ldi r18,lo8(120)
 305 008a 30E0      		ldi r19,0
 306               	.L6:
 307               	.LBE77:
 308               	.LBB82:
  33:td4_1.cpp     **** 		_delay_ms(1000.0/240.0);
  34:td4_1.cpp     **** 	}
  35:td4_1.cpp     **** 	for (int i3 = 0 ; i3 < 120; i3++){
GAS LISTING /tmp/ccQsua05.s 			page 10


  36:td4_1.cpp     **** 		PORTB = 0xFF;
 309               		.stabn	68,0,36,.LM23-.LFBB1
 310               	.LM23:
 311 008c 95B9      		out 0x5,r25
 312               	.LBB83:
 313               	.LBB84:
 314               		.stabs	"/usr/avr/include/util/delay.h",132,0,0,.Ltext15
 315               	.Ltext15:
 316               		.stabn	68,0,164,.LM24-.LFBB1
 317               	.LM24:
 318 008e E5E3      		ldi r30,lo8(-32203)
 319 0090 F2E8      		ldi r31,hi8(-32203)
 320 0092 3197      		1: sbiw r30,1
 321 0094 01F4      		brne 1b
 322 0096 0000      		nop
 323 0098 2150      		subi r18,1
 324 009a 3109      		sbc r19,__zero_reg__
 325               	.LBE84:
 326               	.LBE83:
 327               		.stabs	"td4_1.cpp",132,0,0,.Ltext16
 328               	.Ltext16:
  35:td4_1.cpp     **** 		PORTB = 0xFF;
 329               		.stabn	68,0,35,.LM25-.LFBB1
 330               	.LM25:
 331 009c 01F4      		brne .L6
 332 009e 20E2      		ldi r18,lo8(32)
 333 00a0 33E0      		ldi r19,lo8(3)
 334               	.L7:
 335               	.LBE82:
 336               	.LBB85:
  37:td4_1.cpp     **** 		_delay_ms(1000.0/60.0);
  38:td4_1.cpp     **** 	}
  39:td4_1.cpp     **** 	
  40:td4_1.cpp     **** 	
  41:td4_1.cpp     **** 	
  42:td4_1.cpp     **** 	for (int j1 = 0 ; j1 < 800 ; j1++){
  43:td4_1.cpp     **** 		PORTB = 0x01;
 337               		.stabn	68,0,43,.LM26-.LFBB1
 338               	.LM26:
 339 00a2 85B9      		out 0x5,r24
 340               	.LBB86:
 341               	.LBB87:
 342               		.stabs	"/usr/avr/include/util/delay.h",132,0,0,.Ltext17
 343               	.Ltext17:
 344               		.stabn	68,0,164,.LM27-.LFBB1
 345               	.LM27:
 346 00a4 E7E8      		ldi r30,lo8(4999)
 347 00a6 F3E1      		ldi r31,hi8(4999)
 348 00a8 3197      		1: sbiw r30,1
 349 00aa 01F4      		brne 1b
 350 00ac 00C0      		rjmp .
 351 00ae 0000      		nop
 352 00b0 2150      		subi r18,1
 353 00b2 3109      		sbc r19,__zero_reg__
 354               	.LBE87:
 355               	.LBE86:
 356               		.stabs	"td4_1.cpp",132,0,0,.Ltext18
GAS LISTING /tmp/ccQsua05.s 			page 11


 357               	.Ltext18:
  42:td4_1.cpp     **** 		PORTB = 0x01;
 358               		.stabn	68,0,42,.LM28-.LFBB1
 359               	.LM28:
 360 00b4 01F4      		brne .L7
 361 00b6 20E2      		ldi r18,lo8(32)
 362 00b8 33E0      		ldi r19,lo8(3)
 363               	.L8:
 364               	.LBE85:
 365               	.LBB88:
  44:td4_1.cpp     **** 		_delay_ms(1000.0/400.0);
  45:td4_1.cpp     **** 	}
  46:td4_1.cpp     **** 	for (int i2 = 0 ; i2 < 800; i2++){
  47:td4_1.cpp     **** 		PORTB = 0xFF;
 366               		.stabn	68,0,47,.LM29-.LFBB1
 367               	.LM29:
 368 00ba 95B9      		out 0x5,r25
 369               	.LBB89:
 370               	.LBB90:
 371               		.stabs	"/usr/avr/include/util/delay.h",132,0,0,.Ltext19
 372               	.Ltext19:
 373               		.stabn	68,0,164,.LM30-.LFBB1
 374               	.LM30:
 375 00bc E1EE      		ldi r30,lo8(1249)
 376 00be F4E0      		ldi r31,hi8(1249)
 377 00c0 3197      		1: sbiw r30,1
 378 00c2 01F4      		brne 1b
 379 00c4 00C0      		rjmp .
 380 00c6 0000      		nop
 381               	.LBE90:
 382               	.LBE89:
 383               		.stabs	"td4_1.cpp",132,0,0,.Ltext20
 384               	.Ltext20:
  48:td4_1.cpp     **** 		_delay_ms(1000.0/1600.0);
  49:td4_1.cpp     **** 		PORTB = 0x01;
 385               		.stabn	68,0,49,.LM31-.LFBB1
 386               	.LM31:
 387 00c8 85B9      		out 0x5,r24
 388               	.LBB91:
 389               	.LBB92:
 390               		.stabs	"/usr/avr/include/util/delay.h",132,0,0,.Ltext21
 391               	.Ltext21:
 392               		.stabn	68,0,164,.LM32-.LFBB1
 393               	.LM32:
 394 00ca E6EA      		ldi r30,lo8(3750)
 395 00cc FEE0      		ldi r31,hi8(3750)
 396 00ce 3197      		1: sbiw r30,1
 397 00d0 01F4      		brne 1b
 398 00d2 2150      		subi r18,1
 399 00d4 3109      		sbc r19,__zero_reg__
 400               	.LBE92:
 401               	.LBE91:
 402               		.stabs	"td4_1.cpp",132,0,0,.Ltext22
 403               	.Ltext22:
  46:td4_1.cpp     **** 		PORTB = 0xFF;
 404               		.stabn	68,0,46,.LM33-.LFBB1
 405               	.LM33:
GAS LISTING /tmp/ccQsua05.s 			page 12


 406 00d6 01F4      		brne .L8
 407 00d8 20E2      		ldi r18,lo8(32)
 408 00da 33E0      		ldi r19,lo8(3)
 409               	.L9:
 410               	.LBE88:
 411               	.LBB93:
  50:td4_1.cpp     **** 		_delay_ms(1000.0/(1600.0/3.0));
  51:td4_1.cpp     **** 	}
  52:td4_1.cpp     **** 	for (int i3 = 0 ; i3 < 800; i3++){
  53:td4_1.cpp     **** 		PORTB = 0xFF;
 412               		.stabn	68,0,53,.LM34-.LFBB1
 413               	.LM34:
 414 00dc 95B9      		out 0x5,r25
 415               	.LBB94:
 416               	.LBB95:
 417               		.stabs	"/usr/avr/include/util/delay.h",132,0,0,.Ltext23
 418               	.Ltext23:
 419               		.stabn	68,0,164,.LM35-.LFBB1
 420               	.LM35:
 421 00de E3EC      		ldi r30,lo8(2499)
 422 00e0 F9E0      		ldi r31,hi8(2499)
 423 00e2 3197      		1: sbiw r30,1
 424 00e4 01F4      		brne 1b
 425 00e6 00C0      		rjmp .
 426 00e8 0000      		nop
 427               	.LBE95:
 428               	.LBE94:
 429               		.stabs	"td4_1.cpp",132,0,0,.Ltext24
 430               	.Ltext24:
  54:td4_1.cpp     **** 		_delay_ms(1000.0/800.0);
  55:td4_1.cpp     **** 		PORTB = 0x01;
 431               		.stabn	68,0,55,.LM36-.LFBB1
 432               	.LM36:
 433 00ea 85B9      		out 0x5,r24
 434               	.LBB96:
 435               	.LBB97:
 436               		.stabs	"/usr/avr/include/util/delay.h",132,0,0,.Ltext25
 437               	.Ltext25:
 438               		.stabn	68,0,164,.LM37-.LFBB1
 439               	.LM37:
 440 00ec E3EC      		ldi r30,lo8(2499)
 441 00ee F9E0      		ldi r31,hi8(2499)
 442 00f0 3197      		1: sbiw r30,1
 443 00f2 01F4      		brne 1b
 444 00f4 00C0      		rjmp .
 445 00f6 0000      		nop
 446 00f8 2150      		subi r18,1
 447 00fa 3109      		sbc r19,__zero_reg__
 448               	.LBE97:
 449               	.LBE96:
 450               		.stabs	"td4_1.cpp",132,0,0,.Ltext26
 451               	.Ltext26:
  52:td4_1.cpp     **** 		PORTB = 0xFF;
 452               		.stabn	68,0,52,.LM38-.LFBB1
 453               	.LM38:
 454 00fc 01F4      		brne .L9
 455 00fe 20E2      		ldi r18,lo8(32)
GAS LISTING /tmp/ccQsua05.s 			page 13


 456 0100 33E0      		ldi r19,lo8(3)
 457               	.L10:
 458               	.LBE93:
 459               	.LBB98:
  56:td4_1.cpp     **** 		_delay_ms(1000.0/800.0);
  57:td4_1.cpp     **** 	}
  58:td4_1.cpp     **** 	for (int i4 = 0 ; i4 < 800; i4++){
  59:td4_1.cpp     **** 		PORTB = 0xFF;
 460               		.stabn	68,0,59,.LM39-.LFBB1
 461               	.LM39:
 462 0102 95B9      		out 0x5,r25
 463               	.LBB99:
 464               	.LBB100:
 465               		.stabs	"/usr/avr/include/util/delay.h",132,0,0,.Ltext27
 466               	.Ltext27:
 467               		.stabn	68,0,164,.LM40-.LFBB1
 468               	.LM40:
 469 0104 E6EA      		ldi r30,lo8(3750)
 470 0106 FEE0      		ldi r31,hi8(3750)
 471 0108 3197      		1: sbiw r30,1
 472 010a 01F4      		brne 1b
 473               	.LBE100:
 474               	.LBE99:
 475               		.stabs	"td4_1.cpp",132,0,0,.Ltext28
 476               	.Ltext28:
  60:td4_1.cpp     **** 		_delay_ms(1000.0/(1600.0/3.0));
  61:td4_1.cpp     **** 		PORTB = 0x01;
 477               		.stabn	68,0,61,.LM41-.LFBB1
 478               	.LM41:
 479 010c 85B9      		out 0x5,r24
 480               	.LBB101:
 481               	.LBB102:
 482               		.stabs	"/usr/avr/include/util/delay.h",132,0,0,.Ltext29
 483               	.Ltext29:
 484               		.stabn	68,0,164,.LM42-.LFBB1
 485               	.LM42:
 486 010e E1EE      		ldi r30,lo8(1249)
 487 0110 F4E0      		ldi r31,hi8(1249)
 488 0112 3197      		1: sbiw r30,1
 489 0114 01F4      		brne 1b
 490 0116 00C0      		rjmp .
 491 0118 0000      		nop
 492 011a 2150      		subi r18,1
 493 011c 3109      		sbc r19,__zero_reg__
 494               	.LBE102:
 495               	.LBE101:
 496               		.stabs	"td4_1.cpp",132,0,0,.Ltext30
 497               	.Ltext30:
  58:td4_1.cpp     **** 		PORTB = 0xFF;
 498               		.stabn	68,0,58,.LM43-.LFBB1
 499               	.LM43:
 500 011e 01F4      		brne .L10
 501 0120 20E2      		ldi r18,lo8(32)
 502 0122 33E0      		ldi r19,lo8(3)
 503               	.L11:
 504               	.LBE98:
 505               	.LBB103:
GAS LISTING /tmp/ccQsua05.s 			page 14


  62:td4_1.cpp     **** 		_delay_ms(1000.0/1600.0);
  63:td4_1.cpp     **** 	}
  64:td4_1.cpp     **** 	for (int i3 = 0 ; i3 < 800; i3++){
  65:td4_1.cpp     **** 		PORTB = 0xFF;
 506               		.stabn	68,0,65,.LM44-.LFBB1
 507               	.LM44:
 508 0124 95B9      		out 0x5,r25
 509               	.LBB104:
 510               	.LBB105:
 511               		.stabs	"/usr/avr/include/util/delay.h",132,0,0,.Ltext31
 512               	.Ltext31:
 513               		.stabn	68,0,164,.LM45-.LFBB1
 514               	.LM45:
 515 0126 E7E8      		ldi r30,lo8(4999)
 516 0128 F3E1      		ldi r31,hi8(4999)
 517 012a 3197      		1: sbiw r30,1
 518 012c 01F4      		brne 1b
 519 012e 00C0      		rjmp .
 520 0130 0000      		nop
 521 0132 2150      		subi r18,1
 522 0134 3109      		sbc r19,__zero_reg__
 523               	.LBE105:
 524               	.LBE104:
 525               		.stabs	"td4_1.cpp",132,0,0,.Ltext32
 526               	.Ltext32:
  64:td4_1.cpp     **** 		PORTB = 0xFF;
 527               		.stabn	68,0,64,.LM46-.LFBB1
 528               	.LM46:
 529 0136 01F4      		brne .L11
 530 0138 00C0      		rjmp .L12
 531               	.LBE103:
 532               	.LBE106:
 533               		.size	main, .-main
 534               	.Lscope1:
 535               		.stabs	"",36,0,0,.Lscope1-.LFBB1
 536               		.stabd	78,0,0
 537               		.text
 538               		.stabs	"",100,0,0,.Letext0
 539               	.Letext0:
 540               		.ident	"GCC: (Fedora 4.9.2-1.fc22) 4.9.2"
GAS LISTING /tmp/ccQsua05.s 			page 15


DEFINED SYMBOLS
                            *ABS*:0000000000000000 td4_1.cpp
     /tmp/ccQsua05.s:2      *ABS*:000000000000003e __SP_H__
     /tmp/ccQsua05.s:3      *ABS*:000000000000003d __SP_L__
     /tmp/ccQsua05.s:4      *ABS*:000000000000003f __SREG__
     /tmp/ccQsua05.s:5      *ABS*:0000000000000000 __tmp_reg__
     /tmp/ccQsua05.s:6      *ABS*:0000000000000001 __zero_reg__
     /tmp/ccQsua05.s:108    .text.startup:0000000000000000 main

NO UNDEFINED SYMBOLS
